target datalayout = "e-m:e-p270:32:32-p271:32:32-p272:64:64-i64:64-i128:128-f80:128-n8:16:32:64-S128"
target triple = "x86_64-unknown-linux-gnu"

%struct.AddressSpace = type { %struct.rcu_head, ptr, ptr, ptr, i32, i32, ptr, %union.anon.0, %union.anon.1 }
%struct.rcu_head = type { ptr, ptr }
%union.anon.0 = type { %struct.QTailQLink }
%struct.QTailQLink = type { ptr, ptr }
%union.anon.1 = type { %struct.QTailQLink }
%struct.SDHCIState = type { %union.anon, %struct.SDBus, %struct.MemoryRegion, %struct.AddressSpace, ptr, ptr, ptr, ptr, ptr, ptr, i32, i16, i16, i32, i16, i16, [4 x i32], i32, i8, i8, i8, i8, i16, i8, i8, i16, i16, i16, i16, i16, i16, i16, i16, i64, i16, i64, i64, i16, ptr, i32, i16, i8, i8, i8, i32, i8, i8, i8, i8 }
%union.anon = type { %struct.PCIDevice }
%struct.PCIDevice = type { %struct.DeviceState, i8, i8, ptr, ptr, ptr, ptr, ptr, i32, %struct.PCIReqIDCache, [64 x i8], [7 x %struct.PCIIORegion], %struct.AddressSpace, %struct.MemoryRegion, %struct.MemoryRegion, ptr, ptr, [3 x ptr], i8, i8, i32, i8, i32, ptr, ptr, ptr, ptr, ptr, ptr, %struct.MemoryRegion, %struct.MemoryRegion, %struct.MemoryRegion, ptr, i8, i32, i8, %struct.PCIExpressDevice, ptr, ptr, i32, i8, %struct.MemoryRegion, i32, ptr, ptr, ptr, ptr, ptr, i32 }
%struct.DeviceState = type { %struct.Object, ptr, ptr, i8, i8, i64, ptr, i32, i8, ptr, %struct.NamedGPIOListHead, %struct.NamedClockListHead, %struct.BusStateHead, i32, i32, i32, %struct.ResettableState, ptr, %struct.MemReentrancyGuard }
%struct.Object = type { ptr, ptr, ptr, i32, ptr }
%struct.NamedGPIOListHead = type { ptr }
%struct.NamedClockListHead = type { ptr }
%struct.BusStateHead = type { ptr }
%struct.ResettableState = type { i32, i8, i8 }
%struct.MemReentrancyGuard = type { i8 }
%struct.PCIReqIDCache = type { ptr, i32 }
%struct.PCIIORegion = type { i64, i64, i8, ptr, ptr }
%struct.PCIExpressDevice = type { i8, i8, i8, i16, %struct.PCIEAERLog, i16, i16, i16, %struct.PCIESriovPF, %struct.PCIESriovVF }
%struct.PCIEAERLog = type { i16, i16, ptr }
%struct.PCIESriovPF = type { i16, [7 x i8], ptr, ptr }
%struct.PCIESriovVF = type { ptr, i16 }
%struct.SDBus = type { %struct.BusState }
%struct.BusState = type { %struct.Object, ptr, ptr, ptr, i32, i8, i8, i32, %union.BusChildHead, %struct.BusStateEntry, %struct.ResettableState }
%union.BusChildHead = type { %struct.QTailQLink }
%struct.BusStateEntry = type { ptr, ptr }
%struct.MemoryRegion = type { %struct.Object, i8, i8, i8, i8, i8, i8, i8, i8, i8, i8, ptr, ptr, ptr, ptr, ptr, ptr, i32, i128, i64, ptr, i64, i8, i8, i8, i8, i8, ptr, i64, i32, %union.anon.2, %union.anon.3, %union.anon.4, ptr, i32, ptr, ptr, i8 }
%union.anon.2 = type { %struct.QTailQLink }
%union.anon.3 = type { %struct.QTailQLink }
%union.anon.4 = type { %struct.QTailQLink }

; Function Attrs: nounwind sspstrong uwtable
define internal zeroext i8 @sdhci_slotint(ptr noundef %s) #0 {
entry:
  %s.addr = alloca ptr, align 8
  store ptr %s, ptr %s.addr, align 8
  %0 = load ptr, ptr %s.addr, align 8
  %norintsts = getelementptr inbounds %struct.SDHCIState, ptr %0, i32 0, i32 25
  %1 = load i16, ptr %norintsts, align 4
  %conv = zext i16 %1 to i32
  %2 = load ptr, ptr %s.addr, align 8
  %norintsigen = getelementptr inbounds %struct.SDHCIState, ptr %2, i32 0, i32 29
  %3 = load i16, ptr %norintsigen, align 4
  %conv1 = zext i16 %3 to i32
  %and = and i32 %conv, %conv1
  %tobool = icmp ne i32 %and, 0
  br i1 %tobool, label %lor.end, label %lor.lhs.false

lor.lhs.false:                                    ; preds = %entry
  %4 = load ptr, ptr %s.addr, align 8
  %errintsts = getelementptr inbounds %struct.SDHCIState, ptr %4, i32 0, i32 26
  %5 = load i16, ptr %errintsts, align 2
  %conv2 = zext i16 %5 to i32
  %6 = load ptr, ptr %s.addr, align 8
  %errintsigen = getelementptr inbounds %struct.SDHCIState, ptr %6, i32 0, i32 30
  %7 = load i16, ptr %errintsigen, align 2
  %conv3 = zext i16 %7 to i32
  %and4 = and i32 %conv2, %conv3
  %tobool5 = icmp ne i32 %and4, 0
  br i1 %tobool5, label %lor.end, label %lor.lhs.false6

lor.lhs.false6:                                   ; preds = %lor.lhs.false
  %8 = load ptr, ptr %s.addr, align 8
  %norintsts7 = getelementptr inbounds %struct.SDHCIState, ptr %8, i32 0, i32 25
  %9 = load i16, ptr %norintsts7, align 4
  %conv8 = zext i16 %9 to i32
  %and9 = and i32 %conv8, 64
  %tobool10 = icmp ne i32 %and9, 0
  br i1 %tobool10, label %land.lhs.true, label %lor.rhs

land.lhs.true:                                    ; preds = %lor.lhs.false6
  %10 = load ptr, ptr %s.addr, align 8
  %wakcon = getelementptr inbounds %struct.SDHCIState, ptr %10, i32 0, i32 21
  %11 = load i8, ptr %wakcon, align 1
  %conv11 = zext i8 %11 to i32
  %and12 = and i32 %conv11, 2
  %tobool13 = icmp ne i32 %and12, 0
  br i1 %tobool13, label %lor.end, label %lor.rhs

lor.rhs:                                          ; preds = %land.lhs.true, %lor.lhs.false6
  %12 = load ptr, ptr %s.addr, align 8
  %norintsts14 = getelementptr inbounds %struct.SDHCIState, ptr %12, i32 0, i32 25
  %13 = load i16, ptr %norintsts14, align 4
  %conv15 = zext i16 %13 to i32
  %and16 = and i32 %conv15, 128
  %tobool17 = icmp ne i32 %and16, 0
  br i1 %tobool17, label %land.rhs, label %land.end

land.rhs:                                         ; preds = %lor.rhs
  %14 = load ptr, ptr %s.addr, align 8
  %wakcon18 = getelementptr inbounds %struct.SDHCIState, ptr %14, i32 0, i32 21
  %15 = load i8, ptr %wakcon18, align 1
  %conv19 = zext i8 %15 to i32
  %and20 = and i32 %conv19, 4
  %tobool21 = icmp ne i32 %and20, 0
  br label %land.end

land.end:                                         ; preds = %land.rhs, %lor.rhs
  %16 = phi i1 [ false, %lor.rhs ], [ %tobool21, %land.rhs ]
  br label %lor.end

lor.end:                                          ; preds = %land.end, %land.lhs.true, %lor.lhs.false, %entry
  %17 = phi i1 [ true, %land.lhs.true ], [ true, %lor.lhs.false ], [ true, %entry ], [ %16, %land.end ]
  %lor.ext = zext i1 %17 to i32
  %conv22 = trunc i32 %lor.ext to i8
  ret i8 %conv22
}

; Function Attrs: nounwind sspstrong uwtable
define internal zeroext i1 @sdhci_update_irq(ptr noundef %s) #0 {
entry:
  %s.addr = alloca ptr, align 8
  %pending = alloca i8, align 1
  store ptr %s, ptr %s.addr, align 8
  %0 = load ptr, ptr %s.addr, align 8
  %call = call zeroext i8 @sdhci_slotint(ptr noundef %0)
  %tobool = icmp ne i8 %call, 0
  %frombool = zext i1 %tobool to i8
  store i8 %frombool, ptr %pending, align 1
  %1 = load ptr, ptr %s.addr, align 8
  %irq = getelementptr inbounds %struct.SDHCIState, ptr %1, i32 0, i32 9
  %2 = load ptr, ptr %irq, align 16
  %3 = load i8, ptr %pending, align 1
  %tobool1 = trunc i8 %3 to i1
  %conv = zext i1 %tobool1 to i32
  call void @qemu_set_irq(ptr noundef %2, i32 noundef %conv)
  %4 = load i8, ptr %pending, align 1
  %tobool2 = trunc i8 %4 to i1
  ret i1 %tobool2
}

; Function Attrs: nounwind sspstrong uwtable
define internal void @sdhci_write_block_to_card(ptr noundef %s) #0 {
entry:
  %s.addr = alloca ptr, align 8
  store ptr %s, ptr %s.addr, align 8
  %0 = load ptr, ptr %s.addr, align 8
  %prnsts = getelementptr inbounds %struct.SDHCIState, ptr %0, i32 0, i32 17
  %1 = load i32, ptr %prnsts, align 8
  %and = and i32 %1, 1024
  %tobool = icmp ne i32 %and, 0
  br i1 %tobool, label %if.then, label %if.end6

if.then:                                          ; preds = %entry
  %2 = load ptr, ptr %s.addr, align 8
  %norintstsen = getelementptr inbounds %struct.SDHCIState, ptr %2, i32 0, i32 27
  %3 = load i16, ptr %norintstsen, align 8
  %conv = zext i16 %3 to i32
  %and1 = and i32 %conv, 16
  %tobool2 = icmp ne i32 %and1, 0
  br i1 %tobool2, label %if.then3, label %if.end

if.then3:                                         ; preds = %if.then
  %4 = load ptr, ptr %s.addr, align 8
  %norintsts = getelementptr inbounds %struct.SDHCIState, ptr %4, i32 0, i32 25
  %5 = load i16, ptr %norintsts, align 4
  %conv4 = zext i16 %5 to i32
  %or = or i32 %conv4, 16
  %conv5 = trunc i32 %or to i16
  store i16 %conv5, ptr %norintsts, align 4
  br label %if.end

if.end:                                           ; preds = %if.then3, %if.then
  %6 = load ptr, ptr %s.addr, align 8
  %call = call zeroext i1 @sdhci_update_irq(ptr noundef %6)
  br label %return

if.end6:                                          ; preds = %entry
  %7 = load ptr, ptr %s.addr, align 8
  %trnmod = getelementptr inbounds %struct.SDHCIState, ptr %7, i32 0, i32 14
  %8 = load i16, ptr %trnmod, align 4
  %conv7 = zext i16 %8 to i32
  %and8 = and i32 %conv7, 2
  %tobool9 = icmp ne i32 %and8, 0
  br i1 %tobool9, label %if.then10, label %if.end16

if.then10:                                        ; preds = %if.end6
  %9 = load ptr, ptr %s.addr, align 8
  %blkcnt = getelementptr inbounds %struct.SDHCIState, ptr %9, i32 0, i32 12
  %10 = load i16, ptr %blkcnt, align 2
  %conv11 = zext i16 %10 to i32
  %cmp = icmp eq i32 %conv11, 0
  br i1 %cmp, label %if.then13, label %if.else

if.then13:                                        ; preds = %if.then10
  br label %return

if.else:                                          ; preds = %if.then10
  %11 = load ptr, ptr %s.addr, align 8
  %blkcnt14 = getelementptr inbounds %struct.SDHCIState, ptr %11, i32 0, i32 12
  %12 = load i16, ptr %blkcnt14, align 2
  %dec = add i16 %12, -1
  store i16 %dec, ptr %blkcnt14, align 2
  br label %if.end15

if.end15:                                         ; preds = %if.else
  br label %if.end16

if.end16:                                         ; preds = %if.end15, %if.end6
  %13 = load ptr, ptr %s.addr, align 8
  %sdbus = getelementptr inbounds %struct.SDHCIState, ptr %13, i32 0, i32 1
  %14 = load ptr, ptr %s.addr, align 8
  %fifo_buffer = getelementptr inbounds %struct.SDHCIState, ptr %14, i32 0, i32 38
  %15 = load ptr, ptr %fifo_buffer, align 16
  %16 = load ptr, ptr %s.addr, align 8
  %blksize = getelementptr inbounds %struct.SDHCIState, ptr %16, i32 0, i32 11
  %17 = load i16, ptr %blksize, align 4
  %conv17 = zext i16 %17 to i64
  %and18 = and i64 %conv17, 4095
  call void @sdbus_write_data(ptr noundef %sdbus, ptr noundef %15, i64 noundef %and18)
  %18 = load ptr, ptr %s.addr, align 8
  %prnsts19 = getelementptr inbounds %struct.SDHCIState, ptr %18, i32 0, i32 17
  %19 = load i32, ptr %prnsts19, align 8
  %or20 = or i32 %19, 1024
  store i32 %or20, ptr %prnsts19, align 8
  %20 = load ptr, ptr %s.addr, align 8
  %trnmod21 = getelementptr inbounds %struct.SDHCIState, ptr %20, i32 0, i32 14
  %21 = load i16, ptr %trnmod21, align 4
  %conv22 = zext i16 %21 to i32
  %and23 = and i32 %conv22, 32
  %cmp24 = icmp eq i32 %and23, 0
  br i1 %cmp24, label %if.then39, label %lor.lhs.false

lor.lhs.false:                                    ; preds = %if.end16
  %22 = load ptr, ptr %s.addr, align 8
  %trnmod26 = getelementptr inbounds %struct.SDHCIState, ptr %22, i32 0, i32 14
  %23 = load i16, ptr %trnmod26, align 4
  %conv27 = zext i16 %23 to i32
  %and28 = and i32 %conv27, 32
  %tobool29 = icmp ne i32 %and28, 0
  br i1 %tobool29, label %land.lhs.true, label %if.else40

land.lhs.true:                                    ; preds = %lor.lhs.false
  %24 = load ptr, ptr %s.addr, align 8
  %trnmod30 = getelementptr inbounds %struct.SDHCIState, ptr %24, i32 0, i32 14
  %25 = load i16, ptr %trnmod30, align 4
  %conv31 = zext i16 %25 to i32
  %and32 = and i32 %conv31, 2
  %tobool33 = icmp ne i32 %and32, 0
  br i1 %tobool33, label %land.lhs.true34, label %if.else40

land.lhs.true34:                                  ; preds = %land.lhs.true
  %26 = load ptr, ptr %s.addr, align 8
  %blkcnt35 = getelementptr inbounds %struct.SDHCIState, ptr %26, i32 0, i32 12
  %27 = load i16, ptr %blkcnt35, align 2
  %conv36 = zext i16 %27 to i32
  %cmp37 = icmp eq i32 %conv36, 0
  br i1 %cmp37, label %if.then39, label %if.else40

if.then39:                                        ; preds = %land.lhs.true34, %if.end16
  %28 = load ptr, ptr %s.addr, align 8
  call void @sdhci_end_transfer(ptr noundef %28)
  br label %if.end51

if.else40:                                        ; preds = %land.lhs.true34, %land.lhs.true, %lor.lhs.false
  %29 = load ptr, ptr %s.addr, align 8
  %norintstsen41 = getelementptr inbounds %struct.SDHCIState, ptr %29, i32 0, i32 27
  %30 = load i16, ptr %norintstsen41, align 8
  %conv42 = zext i16 %30 to i32
  %and43 = and i32 %conv42, 16
  %tobool44 = icmp ne i32 %and43, 0
  br i1 %tobool44, label %if.then45, label %if.end50

if.then45:                                        ; preds = %if.else40
  %31 = load ptr, ptr %s.addr, align 8
  %norintsts46 = getelementptr inbounds %struct.SDHCIState, ptr %31, i32 0, i32 25
  %32 = load i16, ptr %norintsts46, align 4
  %conv47 = zext i16 %32 to i32
  %or48 = or i32 %conv47, 16
  %conv49 = trunc i32 %or48 to i16
  store i16 %conv49, ptr %norintsts46, align 4
  br label %if.end50

if.end50:                                         ; preds = %if.then45, %if.else40
  br label %if.end51

if.end51:                                         ; preds = %if.end50, %if.then39
  %33 = load ptr, ptr %s.addr, align 8
  %stopped_state = getelementptr inbounds %struct.SDHCIState, ptr %33, i32 0, i32 41
  %34 = load i8, ptr %stopped_state, align 2
  %conv52 = zext i8 %34 to i32
  %cmp53 = icmp eq i32 %conv52, 2
  br i1 %cmp53, label %land.lhs.true55, label %if.end78

land.lhs.true55:                                  ; preds = %if.end51
  %35 = load ptr, ptr %s.addr, align 8
  %trnmod56 = getelementptr inbounds %struct.SDHCIState, ptr %35, i32 0, i32 14
  %36 = load i16, ptr %trnmod56, align 4
  %conv57 = zext i16 %36 to i32
  %and58 = and i32 %conv57, 32
  %tobool59 = icmp ne i32 %and58, 0
  br i1 %tobool59, label %land.lhs.true60, label %if.end78

land.lhs.true60:                                  ; preds = %land.lhs.true55
  %37 = load ptr, ptr %s.addr, align 8
  %blkcnt61 = getelementptr inbounds %struct.SDHCIState, ptr %37, i32 0, i32 12
  %38 = load i16, ptr %blkcnt61, align 2
  %conv62 = zext i16 %38 to i32
  %cmp63 = icmp sgt i32 %conv62, 0
  br i1 %cmp63, label %if.then65, label %if.end78

if.then65:                                        ; preds = %land.lhs.true60
  %39 = load ptr, ptr %s.addr, align 8
  %prnsts66 = getelementptr inbounds %struct.SDHCIState, ptr %39, i32 0, i32 17
  %40 = load i32, ptr %prnsts66, align 8
  %and67 = and i32 %40, -257
  store i32 %and67, ptr %prnsts66, align 8
  %41 = load ptr, ptr %s.addr, align 8
  %norintstsen68 = getelementptr inbounds %struct.SDHCIState, ptr %41, i32 0, i32 27
  %42 = load i16, ptr %norintstsen68, align 8
  %conv69 = zext i16 %42 to i32
  %and70 = and i32 %conv69, 4
  %tobool71 = icmp ne i32 %and70, 0
  br i1 %tobool71, label %if.then72, label %if.end77

if.then72:                                        ; preds = %if.then65
  %43 = load ptr, ptr %s.addr, align 8
  %norintsts73 = getelementptr inbounds %struct.SDHCIState, ptr %43, i32 0, i32 25
  %44 = load i16, ptr %norintsts73, align 4
  %conv74 = zext i16 %44 to i32
  %or75 = or i32 %conv74, 4
  %conv76 = trunc i32 %or75 to i16
  store i16 %conv76, ptr %norintsts73, align 4
  br label %if.end77

if.end77:                                         ; preds = %if.then72, %if.then65
  %45 = load ptr, ptr %s.addr, align 8
  call void @sdhci_end_transfer(ptr noundef %45)
  br label %if.end78

if.end78:                                         ; preds = %if.end77, %land.lhs.true60, %land.lhs.true55, %if.end51
  %46 = load ptr, ptr %s.addr, align 8
  %call79 = call zeroext i1 @sdhci_update_irq(ptr noundef %46)
  br label %return

return:                                           ; preds = %if.end78, %if.then13, %if.end
  ret void
}