; Function Attrs: nounwind sspstrong uwtable
define internal fastcc void @sdhci_write_block_to_card(ptr noundef %s) unnamed_addr #0 {
entry:
  %prnsts = getelementptr inbounds nuw i8, ptr %s, i64 3176
  %0 = load i32, ptr %prnsts, align 8
  %and = and i32 %0, 1024
  %tobool.not = icmp eq i32 %and, 0
  br i1 %tobool.not, label %if.end6, label %if.then

if.then:                                          ; preds = %entry
  %norintstsen = getelementptr inbounds nuw i8, ptr %s, i64 3192
  %1 = load i16, ptr %norintstsen, align 8
  %2 = and i16 %1, 16
  %tobool2.not = icmp eq i16 %2, 0
  %norintsts.i.i.phi.trans.insert = getelementptr inbounds nuw i8, ptr %s, i64 3188
  %.pre = load i16, ptr %norintsts.i.i.phi.trans.insert, align 4
  br i1 %tobool2.not, label %if.end, label %if.then3

if.then3:                                         ; preds = %if.then
  %3 = or i16 %.pre, 16
  store i16 %3, ptr %norintsts.i.i.phi.trans.insert, align 4
  br label %if.end

if.end:                                           ; preds = %if.then, %if.then3
  %4 = phi i16 [ %3, %if.then3 ], [ %.pre, %if.then ]
  %norintsigen.i.i = getelementptr inbounds nuw i8, ptr %s, i64 3196
  %5 = load i16, ptr %norintsigen.i.i, align 4
  %and8.i.i = and i16 %5, %4
  %tobool.not.i.i = icmp eq i16 %and8.i.i, 0
  br i1 %tobool.not.i.i, label %lor.lhs.false.i.i, label %return.sink.split

lor.lhs.false.i.i:                                ; preds = %if.end
  %errintsts.i.i = getelementptr inbounds nuw i8, ptr %s, i64 3190
  %6 = load i16, ptr %errintsts.i.i, align 2
  %errintsigen.i.i = getelementptr inbounds nuw i8, ptr %s, i64 3198
  %7 = load i16, ptr %errintsigen.i.i, align 2
  %and49.i.i = and i16 %7, %6
  %tobool5.not.i.i = icmp eq i16 %and49.i.i, 0
  br i1 %tobool5.not.i.i, label %lor.lhs.false6.i.i, label %return.sink.split

lor.lhs.false6.i.i:                               ; preds = %lor.lhs.false.i.i
  %8 = and i16 %4, 64
  %tobool10.not.i.i = icmp eq i16 %8, 0
  br i1 %tobool10.not.i.i, label %lor.rhs.i.i, label %land.lhs.true.i.i

land.lhs.true.i.i:                                ; preds = %lor.lhs.false6.i.i
  %wakcon.i.i = getelementptr inbounds nuw i8, ptr %s, i64 3183
  %9 = load i8, ptr %wakcon.i.i, align 1
  %10 = and i8 %9, 2
  %tobool13.not.i.i = icmp eq i8 %10, 0
  br i1 %tobool13.not.i.i, label %lor.rhs.i.i, label %return.sink.split

lor.rhs.i.i:                                      ; preds = %land.lhs.true.i.i, %lor.lhs.false6.i.i
  %11 = and i16 %4, 128
  %tobool17.not.i.i = icmp eq i16 %11, 0
  br i1 %tobool17.not.i.i, label %return.sink.split, label %return.sink.split.sink.split

if.end6:                                          ; preds = %entry
  %trnmod = getelementptr inbounds nuw i8, ptr %s, i64 3156
  %12 = load i16, ptr %trnmod, align 4
  %13 = and i16 %12, 2
  %tobool9.not = icmp eq i16 %13, 0
  br i1 %tobool9.not, label %if.end16, label %if.then10

if.then10:                                        ; preds = %if.end6
  %blkcnt = getelementptr inbounds nuw i8, ptr %s, i64 3150
  %14 = load i16, ptr %blkcnt, align 2
  %cmp = icmp eq i16 %14, 0
  br i1 %cmp, label %return, label %if.else

if.else:                                          ; preds = %if.then10
  %dec = add i16 %14, -1
  store i16 %dec, ptr %blkcnt, align 2
  br label %if.end16

if.end16:                                         ; preds = %if.else, %if.end6
  %sdbus = getelementptr inbounds nuw i8, ptr %s, i64 2608
  %fifo_buffer = getelementptr inbounds nuw i8, ptr %s, i64 3248
  %15 = load ptr, ptr %fifo_buffer, align 16
  %blksize = getelementptr inbounds nuw i8, ptr %s, i64 3148
  %16 = load i16, ptr %blksize, align 4
  %17 = and i16 %16, 4095
  %and18 = zext nneg i16 %17 to i64
  tail call void @sdbus_write_data(ptr noundef nonnull %sdbus, ptr noundef %15, i64 noundef %and18) #12
  %18 = load i32, ptr %prnsts, align 8
  %or20 = or i32 %18, 1024
  store i32 %or20, ptr %prnsts, align 8
  %19 = load i16, ptr %trnmod, align 4
  %conv22 = zext i16 %19 to i32
  %and23 = and i32 %conv22, 32
  %cmp24 = icmp eq i32 %and23, 0
  br i1 %cmp24, label %if.then39, label %land.lhs.true

land.lhs.true:                                    ; preds = %if.end16
  %and32 = and i32 %conv22, 2
  %tobool33.not = icmp eq i32 %and32, 0
  br i1 %tobool33.not, label %if.else40, label %land.lhs.true34

land.lhs.true34:                                  ; preds = %land.lhs.true
  %blkcnt35 = getelementptr inbounds nuw i8, ptr %s, i64 3150
  %20 = load i16, ptr %blkcnt35, align 2
  %cmp37 = icmp eq i16 %20, 0
  br i1 %cmp37, label %if.then39, label %if.else40

if.then39:                                        ; preds = %land.lhs.true34, %if.end16
  tail call fastcc void @sdhci_end_transfer(ptr noundef nonnull %s)
  br label %if.end51

if.else40:                                        ; preds = %land.lhs.true34, %land.lhs.true
  %norintstsen41 = getelementptr inbounds nuw i8, ptr %s, i64 3192
  %21 = load i16, ptr %norintstsen41, align 8
  %22 = and i16 %21, 16
  %tobool44.not = icmp eq i16 %22, 0
  br i1 %tobool44.not, label %if.end51, label %if.then45

if.then45:                                        ; preds = %if.else40
  %norintsts46 = getelementptr inbounds nuw i8, ptr %s, i64 3188
  %23 = load i16, ptr %norintsts46, align 4
  %24 = or i16 %23, 16
  store i16 %24, ptr %norintsts46, align 4
  br label %if.end51

if.end51:                                         ; preds = %if.else40, %if.then45, %if.then39
  %stopped_state = getelementptr inbounds nuw i8, ptr %s, i64 3262
  %25 = load i8, ptr %stopped_state, align 2
  %cmp53 = icmp eq i8 %25, 2
  br i1 %cmp53, label %land.lhs.true55, label %if.end78

land.lhs.true55:                                  ; preds = %if.end51
  %26 = load i16, ptr %trnmod, align 4
  %27 = and i16 %26, 32
  %tobool59.not = icmp eq i16 %27, 0
  br i1 %tobool59.not, label %if.end78, label %land.lhs.true60

land.lhs.true60:                                  ; preds = %land.lhs.true55
  %blkcnt61 = getelementptr inbounds nuw i8, ptr %s, i64 3150
  %28 = load i16, ptr %blkcnt61, align 2
  %cmp63.not = icmp eq i16 %28, 0
  br i1 %cmp63.not, label %if.end78, label %if.then65

if.then65:                                        ; preds = %land.lhs.true60
  %29 = load i32, ptr %prnsts, align 8
  %and67 = and i32 %29, -257
  store i32 %and67, ptr %prnsts, align 8
  %norintstsen68 = getelementptr inbounds nuw i8, ptr %s, i64 3192
  %30 = load i16, ptr %norintstsen68, align 8
  %31 = and i16 %30, 4
  %tobool71.not = icmp eq i16 %31, 0
  br i1 %tobool71.not, label %if.end77, label %if.then72

if.then72:                                        ; preds = %if.then65
  %norintsts73 = getelementptr inbounds nuw i8, ptr %s, i64 3188
  %32 = load i16, ptr %norintsts73, align 4
  %33 = or i16 %32, 4
  store i16 %33, ptr %norintsts73, align 4
  br label %if.end77

if.end77:                                         ; preds = %if.then72, %if.then65
  tail call fastcc void @sdhci_end_transfer(ptr noundef nonnull %s)
  br label %if.end78

if.end78:                                         ; preds = %if.end77, %land.lhs.true60, %land.lhs.true55, %if.end51
  %norintsts.i.i26 = getelementptr inbounds nuw i8, ptr %s, i64 3188
  %34 = load i16, ptr %norintsts.i.i26, align 4
  %norintsigen.i.i27 = getelementptr inbounds nuw i8, ptr %s, i64 3196
  %35 = load i16, ptr %norintsigen.i.i27, align 4
  %and8.i.i28 = and i16 %35, %34
  %tobool.not.i.i29 = icmp eq i16 %and8.i.i28, 0
  br i1 %tobool.not.i.i29, label %lor.lhs.false.i.i34, label %return.sink.split

lor.lhs.false.i.i34:                              ; preds = %if.end78
  %errintsts.i.i35 = getelementptr inbounds nuw i8, ptr %s, i64 3190
  %36 = load i16, ptr %errintsts.i.i35, align 2
  %errintsigen.i.i36 = getelementptr inbounds nuw i8, ptr %s, i64 3198
  %37 = load i16, ptr %errintsigen.i.i36, align 2
  %and49.i.i37 = and i16 %37, %36
  %tobool5.not.i.i38 = icmp eq i16 %and49.i.i37, 0
  br i1 %tobool5.not.i.i38, label %lor.lhs.false6.i.i39, label %return.sink.split

lor.lhs.false6.i.i39:                             ; preds = %lor.lhs.false.i.i34
  %38 = and i16 %34, 64
  %tobool10.not.i.i40 = icmp eq i16 %38, 0
  br i1 %tobool10.not.i.i40, label %lor.rhs.i.i44, label %land.lhs.true.i.i41

land.lhs.true.i.i41:                              ; preds = %lor.lhs.false6.i.i39
  %wakcon.i.i42 = getelementptr inbounds nuw i8, ptr %s, i64 3183
  %39 = load i8, ptr %wakcon.i.i42, align 1
  %40 = and i8 %39, 2
  %tobool13.not.i.i43 = icmp eq i8 %40, 0
  br i1 %tobool13.not.i.i43, label %lor.rhs.i.i44, label %return.sink.split

lor.rhs.i.i44:                                    ; preds = %land.lhs.true.i.i41, %lor.lhs.false6.i.i39
  %41 = and i16 %34, 128
  %tobool17.not.i.i45 = icmp eq i16 %41, 0
  br i1 %tobool17.not.i.i45, label %return.sink.split, label %return.sink.split.sink.split

return.sink.split.sink.split:                     ; preds = %lor.rhs.i.i44, %lor.rhs.i.i
  %wakcon18.i.i47 = getelementptr inbounds nuw i8, ptr %s, i64 3183
  %42 = load i8, ptr %wakcon18.i.i47, align 1
  %43 = lshr i8 %42, 2
  %.lobit.i.i48 = and i8 %43, 1
  %44 = zext nneg i8 %.lobit.i.i48 to i32
  br label %return.sink.split

return.sink.split:                                ; preds = %return.sink.split.sink.split, %lor.rhs.i.i44, %land.lhs.true.i.i41, %lor.lhs.false.i.i34, %if.end78, %lor.rhs.i.i, %land.lhs.true.i.i, %lor.lhs.false.i.i, %if.end
  %conv22.i.i30.sink = phi i32 [ 1, %land.lhs.true.i.i ], [ 1, %lor.lhs.false.i.i ], [ 1, %if.end ], [ 0, %lor.rhs.i.i ], [ 1, %land.lhs.true.i.i41 ], [ 1, %lor.lhs.false.i.i34 ], [ 1, %if.end78 ], [ 0, %lor.rhs.i.i44 ], [ %44, %return.sink.split.sink.split ]
  %irq.i32 = getelementptr inbounds nuw i8, ptr %s, i64 3136
  %45 = load ptr, ptr %irq.i32, align 16
  tail call void @qemu_set_irq(ptr noundef %45, i32 noundef %conv22.i.i30.sink) #12
  br label %return

return:                                           ; preds = %return.sink.split, %if.then10
  ret void
}